target datalayout = "e-m:e-p270:32:32-p271:32:32-p272:64:64-i64:64-i128:128-f80:128-n8:16:32:64-S128"
target triple = "x86_64-pc-linux-gnu"

%struct.object_id = type { [32 x i8], i32 }
%struct.strbuf = type { i64, i64, ptr }
%struct.repository = type { ptr, ptr, ptr, ptr, ptr, %struct.strmap, %struct.strmap, %struct.repo_path_cache, ptr, ptr, ptr, ptr, %struct.repo_settings, ptr, ptr, ptr, ptr, ptr, ptr, i32, i32, i32, ptr, ptr, i32, i32, i8 }
%struct.strmap = type { %struct.hashmap, ptr, i8 }
%struct.hashmap = type { ptr, ptr, ptr, i32, i32, i32, i32, i8 }
%struct.repo_path_cache = type { ptr, ptr, ptr, ptr, ptr, ptr, ptr }
%struct.repo_settings = type { i32, i32, i32, i32, i32, i32, i32, i32, i32, i32, i32, i32, ptr, i32, i32, i32, i32, i32, i32, i32, i64, i64, i64 }
%struct.git_hash_algo = type { ptr, i32, i64, i64, i64, ptr, ptr, ptr, ptr, ptr, ptr, ptr, ptr, ptr }
%struct.object_directory = type { ptr, [8 x i32], ptr, ptr, i32, i32, ptr }

@the_repository = external global ptr, align 8
@strbuf_slopbuf = external global [0 x i8], align 1
@fill_loose_path.hex = internal global [17 x i8] c"0123456789abcdef\00", align 16
@.str.108 = private unnamed_addr constant [11 x i8] c"./strbuf.h\00", align 1
@.str.109 = private unnamed_addr constant [30 x i8] c"strbuf_setlen() beyond buffer\00", align 1

; Function Attrs: inlinehint nounwind uwtable
define internal i64 @strbuf_avail(ptr noundef %0) #7 {
  %2 = alloca ptr, align 8
  store ptr %0, ptr %2, align 8, !tbaa !62
  %3 = load ptr, ptr %2, align 8, !tbaa !62
  %4 = getelementptr inbounds nuw %struct.strbuf, ptr %3, i32 0, i32 0
  %5 = load i64, ptr %4, align 8, !tbaa !191
  %6 = icmp ne i64 %5, 0
  br i1 %6, label %7, label %16

7:                                                ; preds = %1
  %8 = load ptr, ptr %2, align 8, !tbaa !62
  %9 = getelementptr inbounds nuw %struct.strbuf, ptr %8, i32 0, i32 0
  %10 = load i64, ptr %9, align 8, !tbaa !191
  %11 = load ptr, ptr %2, align 8, !tbaa !62
  %12 = getelementptr inbounds nuw %struct.strbuf, ptr %11, i32 0, i32 1
  %13 = load i64, ptr %12, align 8, !tbaa !92
  %14 = sub i64 %10, %13
  %15 = sub i64 %14, 1
  br label %17

16:                                               ; preds = %1
  br label %17

17:                                               ; preds = %16, %7
  %18 = phi i64 [ %15, %7 ], [ 0, %16 ]
  ret i64 %18
}

; Function Attrs: nounwind uwtable
define internal void @fill_loose_path(ptr noundef %0, ptr noundef %1) #0 {
  %3 = alloca ptr, align 8
  %4 = alloca ptr, align 8
  %5 = alloca i32, align 4
  %6 = alloca i32, align 4
  store ptr %0, ptr %3, align 8, !tbaa !62
  store ptr %1, ptr %4, align 8, !tbaa !14
  call void @llvm.lifetime.start.p0(i64 4, ptr %5) #14
  store i32 0, ptr %5, align 4, !tbaa !43
  br label %7

7:                                                ; preds = %43, %2
  %8 = load i32, ptr %5, align 4, !tbaa !43
  %9 = sext i32 %8 to i64
  %10 = load ptr, ptr @the_repository, align 8, !tbaa !19
  %11 = getelementptr inbounds nuw %struct.repository, ptr %10, i32 0, i32 17
  %12 = load ptr, ptr %11, align 8, !tbaa !21
  %13 = getelementptr inbounds nuw %struct.git_hash_algo, ptr %12, i32 0, i32 2
  %14 = load i64, ptr %13, align 8, !tbaa !49
  %15 = icmp ult i64 %9, %14
  br i1 %15, label %16, label %46

16:                                               ; preds = %7
  call void @llvm.lifetime.start.p0(i64 4, ptr %6) #14
  %17 = load ptr, ptr %4, align 8, !tbaa !14
  %18 = getelementptr inbounds nuw %struct.object_id, ptr %17, i32 0, i32 0
  %19 = load i32, ptr %5, align 4, !tbaa !43
  %20 = sext i32 %19 to i64
  %21 = getelementptr inbounds [32 x i8], ptr %18, i64 0, i64 %20
  %22 = load i8, ptr %21, align 1, !tbaa !58
  %23 = zext i8 %22 to i32
  store i32 %23, ptr %6, align 4, !tbaa !43
  %24 = load ptr, ptr %3, align 8, !tbaa !62
  %25 = load i32, ptr %6, align 4, !tbaa !43
  %26 = lshr i32 %25, 4
  %27 = zext i32 %26 to i64
  %28 = getelementptr inbounds nuw [17 x i8], ptr @fill_loose_path.hex, i64 0, i64 %27
  %29 = load i8, ptr %28, align 1, !tbaa !58
  %30 = sext i8 %29 to i32
  call void @strbuf_addch(ptr noundef %24, i32 noundef %30)
  %31 = load ptr, ptr %3, align 8, !tbaa !62
  %32 = load i32, ptr %6, align 4, !tbaa !43
  %33 = and i32 %32, 15
  %34 = zext i32 %33 to i64
  %35 = getelementptr inbounds nuw [17 x i8], ptr @fill_loose_path.hex, i64 0, i64 %34
  %36 = load i8, ptr %35, align 1, !tbaa !58
  %37 = sext i8 %36 to i32
  call void @strbuf_addch(ptr noundef %31, i32 noundef %37)
  %38 = load i32, ptr %5, align 4, !tbaa !43
  %39 = icmp ne i32 %38, 0
  br i1 %39, label %42, label %40

40:                                               ; preds = %16
  %41 = load ptr, ptr %3, align 8, !tbaa !62
  call void @strbuf_addch(ptr noundef %41, i32 noundef 47)
  br label %42

42:                                               ; preds = %40, %16
  call void @llvm.lifetime.end.p0(i64 4, ptr %6) #14
  br label %43

43:                                               ; preds = %42
  %44 = load i32, ptr %5, align 4, !tbaa !43
  %45 = add nsw i32 %44, 1
  store i32 %45, ptr %5, align 4, !tbaa !43
  br label %7, !llvm.loop !200

46:                                               ; preds = %7
  call void @llvm.lifetime.end.p0(i64 4, ptr %5) #14
  ret void
}

; Function Attrs: inlinehint nounwind uwtable
define internal void @strbuf_addch(ptr noundef %0, i32 noundef %1) #7 {
  %3 = alloca ptr, align 8
  %4 = alloca i32, align 4
  store ptr %0, ptr %3, align 8, !tbaa !62
  store i32 %1, ptr %4, align 4, !tbaa !43
  %5 = load ptr, ptr %3, align 8, !tbaa !62
  %6 = call i64 @strbuf_avail(ptr noundef %5)
  %7 = icmp ne i64 %6, 0
  br i1 %7, label %10, label %8

8:                                                ; preds = %2
  %9 = load ptr, ptr %3, align 8, !tbaa !62
  call void @strbuf_grow(ptr noundef %9, i64 noundef 1)
  br label %10

10:                                               ; preds = %8, %2
  %11 = load i32, ptr %4, align 4, !tbaa !43
  %12 = trunc i32 %11 to i8
  %13 = load ptr, ptr %3, align 8, !tbaa !62
  %14 = getelementptr inbounds nuw %struct.strbuf, ptr %13, i32 0, i32 2
  %15 = load ptr, ptr %14, align 8, !tbaa !56
  %16 = load ptr, ptr %3, align 8, !tbaa !62
  %17 = getelementptr inbounds nuw %struct.strbuf, ptr %16, i32 0, i32 1
  %18 = load i64, ptr %17, align 8, !tbaa !92
  %19 = add i64 %18, 1
  store i64 %19, ptr %17, align 8, !tbaa !92
  %20 = getelementptr inbounds nuw i8, ptr %15, i64 %18
  store i8 %12, ptr %20, align 1, !tbaa !58
  %21 = load ptr, ptr %3, align 8, !tbaa !62
  %22 = getelementptr inbounds nuw %struct.strbuf, ptr %21, i32 0, i32 2
  %23 = load ptr, ptr %22, align 8, !tbaa !56
  %24 = load ptr, ptr %3, align 8, !tbaa !62
  %25 = getelementptr inbounds nuw %struct.strbuf, ptr %24, i32 0, i32 1
  %26 = load i64, ptr %25, align 8, !tbaa !92
  %27 = getelementptr inbounds nuw i8, ptr %23, i64 %26
  store i8 0, ptr %27, align 1, !tbaa !58
  ret void
}

; Function Attrs: inlinehint nounwind uwtable
define internal void @strbuf_addstr(ptr noundef %0, ptr noundef %1) #7 {
  %3 = alloca ptr, align 8
  %4 = alloca ptr, align 8
  store ptr %0, ptr %3, align 8, !tbaa !62
  store ptr %1, ptr %4, align 8, !tbaa !12
  %5 = load ptr, ptr %3, align 8, !tbaa !62
  %6 = load ptr, ptr %4, align 8, !tbaa !12
  %7 = load ptr, ptr %4, align 8, !tbaa !12
  %8 = call i64 @strlen(ptr noundef %7) #15
  call void @strbuf_add(ptr noundef %5, ptr noundef %6, i64 noundef %8)
  ret void
}

; Function Attrs: inlinehint nounwind uwtable
define internal void @strbuf_setlen(ptr noundef %0, i64 noundef %1) #7 {
  %3 = alloca ptr, align 8
  %4 = alloca i64, align 8
  store ptr %0, ptr %3, align 8, !tbaa !62
  store i64 %1, ptr %4, align 8, !tbaa !10
  %5 = load i64, ptr %4, align 8, !tbaa !10
  %6 = load ptr, ptr %3, align 8, !tbaa !62
  %7 = getelementptr inbounds nuw %struct.strbuf, ptr %6, i32 0, i32 0
  %8 = load i64, ptr %7, align 8, !tbaa !191
  %9 = icmp ne i64 %8, 0
  br i1 %9, label %10, label %15

10:                                               ; preds = %2
  %11 = load ptr, ptr %3, align 8, !tbaa !62
  %12 = getelementptr inbounds nuw %struct.strbuf, ptr %11, i32 0, i32 0
  %13 = load i64, ptr %12, align 8, !tbaa !191
  %14 = sub i64 %13, 1
  br label %16

15:                                               ; preds = %2
  br label %16

16:                                               ; preds = %15, %10
  %17 = phi i64 [ %14, %10 ], [ 0, %15 ]
  %18 = icmp ugt i64 %5, %17
  br i1 %18, label %19, label %20

19:                                               ; preds = %16
  call void (ptr, i32, ptr, ...) @BUG_fl(ptr noundef @.str.108, i32 noundef 167, ptr noundef @.str.109) #13
  unreachable

20:                                               ; preds = %16
  %21 = load i64, ptr %4, align 8, !tbaa !10
  %22 = load ptr, ptr %3, align 8, !tbaa !62
  %23 = getelementptr inbounds nuw %struct.strbuf, ptr %22, i32 0, i32 1
  store i64 %21, ptr %23, align 8, !tbaa !92
  %24 = load ptr, ptr %3, align 8, !tbaa !62
  %25 = getelementptr inbounds nuw %struct.strbuf, ptr %24, i32 0, i32 2
  %26 = load ptr, ptr %25, align 8, !tbaa !56
  %27 = icmp ne ptr %26, @strbuf_slopbuf
  br i1 %27, label %28, label %34

28:                                               ; preds = %20
  %29 = load ptr, ptr %3, align 8, !tbaa !62
  %30 = getelementptr inbounds nuw %struct.strbuf, ptr %29, i32 0, i32 2
  %31 = load ptr, ptr %30, align 8, !tbaa !56
  %32 = load i64, ptr %4, align 8, !tbaa !10
  %33 = getelementptr inbounds nuw i8, ptr %31, i64 %32
  store i8 0, ptr %33, align 1, !tbaa !58
  br label %35

34:                                               ; preds = %20
  br label %35

35:                                               ; preds = %34, %28
  ret void
}

; Function Attrs: nounwind uwtable
define internal ptr @odb_loose_path(ptr noundef %0, ptr noundef %1, ptr noundef %2) #0 {
  %4 = alloca ptr, align 8
  %5 = alloca ptr, align 8
  %6 = alloca ptr, align 8
  store ptr %0, ptr %4, align 8, !tbaa !78
  store ptr %1, ptr %5, align 8, !tbaa !62
  store ptr %2, ptr %6, align 8, !tbaa !14
  %7 = load ptr, ptr %5, align 8, !tbaa !62
  call void @strbuf_setlen(ptr noundef %7, i64 noundef 0)
  %8 = load ptr, ptr %5, align 8, !tbaa !62
  %9 = load ptr, ptr %4, align 8, !tbaa !78
  %10 = getelementptr inbounds nuw %struct.object_directory, ptr %9, i32 0, i32 6
  %11 = load ptr, ptr %10, align 8, !tbaa !79
  call void @strbuf_addstr(ptr noundef %8, ptr noundef %11)
  %12 = load ptr, ptr %5, align 8, !tbaa !62
  call void @strbuf_addch(ptr noundef %12, i32 noundef 47)
  %13 = load ptr, ptr %5, align 8, !tbaa !62
  %14 = load ptr, ptr %6, align 8, !tbaa !14
  call void @fill_loose_path(ptr noundef %13, ptr noundef %14)
  %15 = load ptr, ptr %5, align 8, !tbaa !62
  %16 = getelementptr inbounds nuw %struct.strbuf, ptr %15, i32 0, i32 2
  %17 = load ptr, ptr %16, align 8, !tbaa !56
  ret ptr %17
}