; Function Attrs: nounwind uwtable
define internal fastcc ptr @odb_loose_path(ptr noundef readonly captures(none) %0, ptr noundef initializes((8, 16)) %1, ptr noundef readonly captures(none) %2) unnamed_addr #1 {
  %4 = getelementptr inbounds nuw i8, ptr %1, i64 8
  store i64 0, ptr %4, align 8, !tbaa !53
  %5 = getelementptr inbounds nuw i8, ptr %1, i64 16
  %6 = load ptr, ptr %5, align 8, !tbaa !49
  %.not9.i = icmp eq ptr %6, @strbuf_slopbuf
  br i1 %.not9.i, label %strbuf_setlen.exit, label %7

7:                                                ; preds = %3
  store i8 0, ptr %6, align 1, !tbaa !51
  br label %strbuf_setlen.exit

strbuf_setlen.exit:                               ; preds = %3, %7
  %8 = getelementptr inbounds nuw i8, ptr %0, i64 64
  %9 = load ptr, ptr %8, align 8, !tbaa !68
  %10 = tail call i64 @strlen(ptr noundef nonnull dereferenceable(1) %9) #28
  tail call void @strbuf_add(ptr noundef nonnull %1, ptr noundef nonnull %9, i64 noundef %10) #27
  %11 = load i64, ptr %1, align 8, !tbaa !72
  %.not.i.i = icmp eq i64 %11, 0
  br i1 %.not.i.i, label %strbuf_avail.exit.thread.i, label %strbuf_avail.exit.i

strbuf_avail.exit.i:                              ; preds = %strbuf_setlen.exit
  %12 = load i64, ptr %4, align 8, !tbaa !53
  %.neg.i = add i64 %12, 1
  %.not.i = icmp eq i64 %11, %.neg.i
  br i1 %.not.i, label %strbuf_avail.exit.thread.i, label %strbuf_addch.exit

strbuf_avail.exit.thread.i:                       ; preds = %strbuf_avail.exit.i, %strbuf_setlen.exit
  tail call void @strbuf_grow(ptr noundef nonnull %1, i64 noundef 1) #27
  %.pre.i = load i64, ptr %4, align 8, !tbaa !53
  %.pre7.i = add i64 %.pre.i, 1
  br label %strbuf_addch.exit

strbuf_addch.exit:                                ; preds = %strbuf_avail.exit.i, %strbuf_avail.exit.thread.i
  %.pre-phi.i = phi i64 [ %.pre7.i, %strbuf_avail.exit.thread.i ], [ %.neg.i, %strbuf_avail.exit.i ]
  %13 = phi i64 [ %.pre.i, %strbuf_avail.exit.thread.i ], [ %12, %strbuf_avail.exit.i ]
  %14 = load ptr, ptr %5, align 8, !tbaa !49
  store i64 %.pre-phi.i, ptr %4, align 8, !tbaa !53
  %15 = getelementptr inbounds nuw i8, ptr %14, i64 %13
  store i8 47, ptr %15, align 1, !tbaa !51
  %16 = load ptr, ptr %5, align 8, !tbaa !49
  %17 = load i64, ptr %4, align 8, !tbaa !53
  %18 = getelementptr inbounds nuw i8, ptr %16, i64 %17
  store i8 0, ptr %18, align 1, !tbaa !51
  %19 = load ptr, ptr @the_repository, align 8, !tbaa !9
  %20 = getelementptr inbounds nuw i8, ptr %19, i64 400
  %21 = load ptr, ptr %20, align 8, !tbaa !12
  %22 = getelementptr inbounds nuw i8, ptr %21, i64 16
  %23 = load i64, ptr %22, align 8, !tbaa !41
  %.not31.i = icmp eq i64 %23, 0
  br i1 %.not31.i, label %fill_loose_path.exit, label %.lr.ph.i

.lr.ph.i:                                         ; preds = %strbuf_addch.exit, %60
  %indvars.iv.i = phi i64 [ %indvars.iv.next.i, %60 ], [ 0, %strbuf_addch.exit ]
  %24 = getelementptr inbounds nuw [32 x i8], ptr %2, i64 0, i64 %indvars.iv.i
  %25 = load i8, ptr %24, align 1, !tbaa !51
  %26 = zext i8 %25 to i32
  %27 = lshr i32 %26, 4
  %28 = zext nneg i32 %27 to i64
  %29 = getelementptr inbounds nuw [17 x i8], ptr @fill_loose_path.hex, i64 0, i64 %28
  %30 = load i8, ptr %29, align 1, !tbaa !51
  %31 = load i64, ptr %1, align 8, !tbaa !72
  %.not.i.i.i = icmp eq i64 %31, 0
  br i1 %.not.i.i.i, label %strbuf_avail.exit.thread.i.i, label %strbuf_avail.exit.i.i

strbuf_avail.exit.i.i:                            ; preds = %.lr.ph.i
  %32 = load i64, ptr %4, align 8, !tbaa !53
  %.neg.i.i = add i64 %32, 1
  %.not.i.i7 = icmp eq i64 %31, %.neg.i.i
  br i1 %.not.i.i7, label %strbuf_avail.exit.thread.i.i, label %strbuf_addch.exit.i

strbuf_avail.exit.thread.i.i:                     ; preds = %strbuf_avail.exit.i.i, %.lr.ph.i
  tail call void @strbuf_grow(ptr noundef nonnull %1, i64 noundef 1) #27
  %.pre.i.i = load i64, ptr %4, align 8, !tbaa !53
  %.pre7.i.i = add i64 %.pre.i.i, 1
  br label %strbuf_addch.exit.i

strbuf_addch.exit.i:                              ; preds = %strbuf_avail.exit.thread.i.i, %strbuf_avail.exit.i.i
  %.pre-phi.i.i = phi i64 [ %.pre7.i.i, %strbuf_avail.exit.thread.i.i ], [ %.neg.i.i, %strbuf_avail.exit.i.i ]
  %33 = phi i64 [ %.pre.i.i, %strbuf_avail.exit.thread.i.i ], [ %32, %strbuf_avail.exit.i.i ]
  %34 = load ptr, ptr %5, align 8, !tbaa !49
  store i64 %.pre-phi.i.i, ptr %4, align 8, !tbaa !53
  %35 = getelementptr inbounds nuw i8, ptr %34, i64 %33
  store i8 %30, ptr %35, align 1, !tbaa !51
  %36 = load ptr, ptr %5, align 8, !tbaa !49
  %37 = load i64, ptr %4, align 8, !tbaa !53
  %38 = getelementptr inbounds nuw i8, ptr %36, i64 %37
  store i8 0, ptr %38, align 1, !tbaa !51
  %39 = and i32 %26, 15
  %40 = zext nneg i32 %39 to i64
  %41 = getelementptr inbounds nuw [17 x i8], ptr @fill_loose_path.hex, i64 0, i64 %40
  %42 = load i8, ptr %41, align 1, !tbaa !51
  %43 = load i64, ptr %1, align 8, !tbaa !72
  %.not.i.i10.i = icmp eq i64 %43, 0
  br i1 %.not.i.i10.i, label %strbuf_avail.exit.thread.i15.i, label %strbuf_avail.exit.i11.i

strbuf_avail.exit.i11.i:                          ; preds = %strbuf_addch.exit.i
  %44 = load i64, ptr %4, align 8, !tbaa !53
  %.neg.i12.i = add i64 %44, 1
  %.not.i13.i = icmp eq i64 %43, %.neg.i12.i
  br i1 %.not.i13.i, label %strbuf_avail.exit.thread.i15.i, label %strbuf_addch.exit19.i

strbuf_avail.exit.thread.i15.i:                   ; preds = %strbuf_avail.exit.i11.i, %strbuf_addch.exit.i
  tail call void @strbuf_grow(ptr noundef nonnull %1, i64 noundef 1) #27
  %.pre.i17.i = load i64, ptr %4, align 8, !tbaa !53
  %.pre7.i18.i = add i64 %.pre.i17.i, 1
  br label %strbuf_addch.exit19.i

strbuf_addch.exit19.i:                            ; preds = %strbuf_avail.exit.thread.i15.i, %strbuf_avail.exit.i11.i
  %.pre-phi.i14.i = phi i64 [ %.pre7.i18.i, %strbuf_avail.exit.thread.i15.i ], [ %.neg.i12.i, %strbuf_avail.exit.i11.i ]
  %45 = phi i64 [ %.pre.i17.i, %strbuf_avail.exit.thread.i15.i ], [ %44, %strbuf_avail.exit.i11.i ]
  %46 = load ptr, ptr %5, align 8, !tbaa !49
  store i64 %.pre-phi.i14.i, ptr %4, align 8, !tbaa !53
  %47 = getelementptr inbounds nuw i8, ptr %46, i64 %45
  store i8 %42, ptr %47, align 1, !tbaa !51
  %48 = load ptr, ptr %5, align 8, !tbaa !49
  %49 = load i64, ptr %4, align 8, !tbaa !53
  %50 = getelementptr inbounds nuw i8, ptr %48, i64 %49
  store i8 0, ptr %50, align 1, !tbaa !51
  %.not.i8 = icmp eq i64 %indvars.iv.i, 0
  br i1 %.not.i8, label %51, label %60

51:                                               ; preds = %strbuf_addch.exit19.i
  %52 = load i64, ptr %1, align 8, !tbaa !72
  %.not.i.i20.i = icmp eq i64 %52, 0
  br i1 %.not.i.i20.i, label %strbuf_avail.exit.thread.i25.i, label %strbuf_avail.exit.i21.i

strbuf_avail.exit.i21.i:                          ; preds = %51
  %53 = load i64, ptr %4, align 8, !tbaa !53
  %.neg.i22.i = add i64 %53, 1
  %.not.i23.i = icmp eq i64 %52, %.neg.i22.i
  br i1 %.not.i23.i, label %strbuf_avail.exit.thread.i25.i, label %strbuf_addch.exit29.i

strbuf_avail.exit.thread.i25.i:                   ; preds = %strbuf_avail.exit.i21.i, %51
  tail call void @strbuf_grow(ptr noundef nonnull %1, i64 noundef 1) #27
  %.pre.i27.i = load i64, ptr %4, align 8, !tbaa !53
  %.pre7.i28.i = add i64 %.pre.i27.i, 1
  br label %strbuf_addch.exit29.i

strbuf_addch.exit29.i:                            ; preds = %strbuf_avail.exit.thread.i25.i, %strbuf_avail.exit.i21.i
  %.pre-phi.i24.i = phi i64 [ %.pre7.i28.i, %strbuf_avail.exit.thread.i25.i ], [ %.neg.i22.i, %strbuf_avail.exit.i21.i ]
  %54 = phi i64 [ %.pre.i27.i, %strbuf_avail.exit.thread.i25.i ], [ %53, %strbuf_avail.exit.i21.i ]
  %55 = load ptr, ptr %5, align 8, !tbaa !49
  store i64 %.pre-phi.i24.i, ptr %4, align 8, !tbaa !53
  %56 = getelementptr inbounds nuw i8, ptr %55, i64 %54
  store i8 47, ptr %56, align 1, !tbaa !51
  %57 = load ptr, ptr %5, align 8, !tbaa !49
  %58 = load i64, ptr %4, align 8, !tbaa !53
  %59 = getelementptr inbounds nuw i8, ptr %57, i64 %58
  store i8 0, ptr %59, align 1, !tbaa !51
  br label %60

60:                                               ; preds = %strbuf_addch.exit29.i, %strbuf_addch.exit19.i
  %indvars.iv.next.i = add nuw nsw i64 %indvars.iv.i, 1
  %61 = load ptr, ptr @the_repository, align 8, !tbaa !9
  %62 = getelementptr inbounds nuw i8, ptr %61, i64 400
  %63 = load ptr, ptr %62, align 8, !tbaa !12
  %64 = getelementptr inbounds nuw i8, ptr %63, i64 16
  %65 = load i64, ptr %64, align 8, !tbaa !41
  %66 = icmp ugt i64 %65, %indvars.iv.next.i
  br i1 %66, label %.lr.ph.i, label %fill_loose_path.exit, !llvm.loop !73

fill_loose_path.exit:                             ; preds = %60, %strbuf_addch.exit
  %67 = load ptr, ptr %5, align 8, !tbaa !49
  ret ptr %67
}